; Function Attrs: mustprogress uwtable
define void @_ZNK6icu_7714Transliterator13transliterateERNS_11ReplaceableE(ptr noundef nonnull align 8 dereferenceable(84) %0, ptr noundef nonnull align 8 dereferenceable(8) %1) unnamed_addr #1 align 2 {
  %3 = load ptr, ptr %1, align 8, !tbaa !15
  %4 = getelementptr inbounds nuw i8, ptr %3, i64 64
  %5 = load ptr, ptr %4, align 8
  %6 = tail call noundef i32 %5(ptr noundef nonnull align 8 dereferenceable(8) %1)
  %7 = load ptr, ptr %0, align 8, !tbaa !15
  %8 = getelementptr inbounds nuw i8, ptr %7, i64 32
  %9 = load ptr, ptr %8, align 8
  %10 = tail call noundef i32 %9(ptr noundef nonnull align 8 dereferenceable(84) %0, ptr noundef nonnull align 8 dereferenceable(8) %1, i32 noundef 0, i32 noundef %6)
  ret void
}